(dp0
S'islands'
p1
(lp2
(lp3
(cnumpy.core.multiarray
scalar
p4
(cnumpy
dtype
p5
(S'f8'
p6
I0
I1
tp7
Rp8
(I3
S'<'
p9
NNNI-1
I-1
I0
tp10
bS'\x9a\xc3\xb1\xfc\xe5\x18S@'
p11
tp12
Rp13
(lp14
F582.1374280349582
aF0.009905022714279363
aF0.01456074676324501
aF1.1588876575706853e-09
aF1.0
aF0.021125396160350553
aF0.035824149973827595
aF0.0029401284623758487
aF0.008744206097006463
aF0.029874945217413882
atp15
a(g4
(g8
S'\x80_\xb4\xb3\xf9\x18S@'
p16
tp17
Rp18
(lp19
F578.2966405323268
aF0.009809545986284649
aF0.014775931643352514
aF1.147716880395304e-09
aF1.0
aF0.02118751372052982
aF0.03624774651705823
aF0.0029727038772454834
aF0.008865759186630582
aF0.030039654902047346
atp20
a(g4
(g8
S'\x16\xdf\xb0l0\x19S@'
p21
tp22
Rp23
(lp24
F439.48631609322973
aF0.009913567804446978
aF0.01929206571585728
aF1.1598874331202964e-09
aF1.0
aF0.02804490366140007
aF0.04730080586102059
aF0.003859471412387283
aF0.011577018560879032
aF0.04026519244805488
atp25
a(g4
(g8
S'\xab\xdb\x8d\xe77\x19S@'
p26
tp27
Rp28
(lp29
F442.2877089462136
aF0.009822665824428214
aF0.019209708442318264
aF1.1492519014581012e-09
aF1.0
aF0.027777353964915198
aF0.047610535708613844
aF0.003843596950086242
aF0.01152634223899607
aF0.039899255421777295
atp30
a(g4
(g8
S'\xe8wc\x9fL\x19S@'
p31
tp32
Rp33
(lp34
F441.89323881132486
aF0.009862587419366608
aF0.019244481162009816
aF1.1539227280658932e-09
aF1.0
aF0.027861499740021695
aF0.04732118852960716
aF0.0038557825089975857
aF0.011550930693146522
aF0.03998883069418603
atp35
a(g4
(g8
S'\xed\xaa\x04\xc8a\x19S@'
p36
tp37
Rp38
(lp39
F441.3546631798818
aF0.009785176229970296
aF0.019255058267843544
aF1.1448656189065246e-09
aF1.0
aF0.027753050028857956
aF0.04728324504111032
aF0.0038533250621835668
aF0.011563093512128393
aF0.039965640618909115
atp40
a(g4
(g8
S'\x8a\xd7\x88\xf2t\x19S@'
p41
tp42
Rp43
(lp44
F442.73201475162574
aF0.009841452847024592
aF0.01919061960877298
aF1.1514499831018772e-09
aF1.0
aF0.0274800531759232
aF0.04710783689727162
aF0.003840613013922411
aF0.011521429932584768
aF0.04002224663912351
atp45
a(g4
(g8
S'\x03A\xb2dw\x19S@'
p46
tp47
Rp48
(lp49
F448.93816964228193
aF0.009959486862198712
aF0.01892177061103817
aF1.1652599628772493e-09
aF1.0
aF0.02742790292714045
aF0.04679629446067255
aF0.003784976159624232
aF0.011367149433917532
aF0.03911413812022855
atp50
a(g4
(g8
S'\xa4\xc7\\\r\x81\x19S@'
p51
tp52
Rp53
(lp54
F437.49633155148445
aF0.009887608905755517
aF0.01931706901220892
aF1.1568502419733955e-09
aF1.0
aF0.02815063496439411
aF0.04781505319606059
aF0.003864399641732392
aF0.011598783055850052
aF0.040586206354110144
atp55
a(g4
(g8
S'e\x8e2\x18\x89\x19S@'
p56
tp57
Rp58
(lp59
F443.5927504069136
aF0.009844759689502058
aF0.019213674815727253
aF1.1518368836717408e-09
aF1.0
aF0.027812347525884625
aF0.04730713987367894
aF0.003850865428834613
aF0.011533585234898459
aF0.03974918923086942
atp60
a(g4
(g8
S'\xcbT\x1d\x94\x8c\x19S@'
p61
tp62
Rp63
(lp64
F452.0393575941019
aF0.01007100489411742
aF0.018697823171357954
aF1.1783075726117382e-09
aF1.0
aF0.027002910422829617
aF0.04587944209156809
aF0.003746624376864704
aF0.01122020042195202
aF0.03933030533509442
atp65
a(g4
(g8
S'\xf9\xcc\xd4n\xcd\x19S@'
p66
tp67
Rp68
(lp69
F437.81273049904974
aF0.010082583595374207
aF0.01924768210297536
aF1.1796622806587822e-09
aF1.0
aF0.027915991218145215
aF0.047857448785339055
aF0.003859239029420827
aF0.011559057522015633
aF0.03986245406880296
atp70
a(g4
(g8
S'\x12\x8c\xd4Q\xd6\x19S@'
p71
tp72
Rp73
(lp74
F445.52826185198154
aF0.009967094149674543
aF0.019103622783668072
aF1.1661500155119215e-09
aF1.0
aF0.027408459778294654
aF0.04659583888208562
aF0.0038310246940408627
aF0.011469308116439838
aF0.03972731562261607
atp75
a(g4
(g8
S'\xd6\xa0h\xf3\xe4\x19S@'
p76
tp77
Rp78
(lp79
F428.5587279738127
aF0.010138285905835856
aF0.01964953145696043
aF1.1861794509827952e-09
aF1.0
aF0.028338739219202033
aF0.04855863457928636
aF0.003935988823278819
aF0.011795843568997972
aF0.04130558894896368
atp80
a(g4
(g8
S'\x93\xa4\xd2\xe9\xe6\x19S@'
p81
tp82
Rp83
(lp84
F442.8333431108355
aF0.009886101079306221
aF0.019101324623154992
aF1.156673826278828e-09
aF1.0
aF0.027875351357735906
aF0.0469309193358994
aF0.003831751929831951
aF0.01148269822587984
aF0.03954226960080711
atp85
a(g4
(g8
S'9\xd1~\xa5\xea\x19S@'
p86
tp87
Rp88
(lp89
F440.300320642221
aF0.01000063745474603
aF0.019194232750362195
aF1.1700745822052856e-09
aF1.0
aF0.027472521034120494
aF0.04725776670537711
aF0.0038455879690966277
aF0.011530505887038307
aF0.040280395689665995
atp90
a(g4
(g8
S'f\x8c\x99\xc3\xec\x19S@'
p91
tp92
Rp93
(lp94
F446.66488527900094
aF0.009836199085633228
aF0.01905785872354055
aF1.1508352930190877e-09
aF1.0
aF0.027359307564157585
aF0.04729260330965776
aF0.003816519981192771
aF0.011451962658191775
aF0.03943030051029619
atp95
a(g4
(g8
S'\xcc\x06.\xa2\xf6\x19S@'
p96
tp97
Rp98
(lp99
F434.87170791815123
aF0.010140558379087717
aF0.01928731840110943
aF1.1864453303532628e-09
aF1.0
aF0.027917705434660947
aF0.048046729069840595
aF0.0038610940139096007
aF0.011583540919099402
aF0.040275256642551334
atp100
a(g4
(g8
S'k\xa3\xe3\xea\x0e\x1aS@'
p101
tp102
Rp103
(lp104
F457.13100930352584
aF0.009942099672809152
aF0.01858872394990064
aF1.1632256617186708e-09
aF1.0
aF0.02702614918644916
aF0.04606675375611847
aF0.00373157191847138
aF0.011167090080725747
aF0.03843178326499531
atp105
a(g4
(g8
S'\x92k\x13\xb5r\x1aS@'
p106
tp107
Rp108
(lp109
F449.98342597297284
aF0.00968555947924195
aF0.018835354667353785
aF1.1332104590713082e-09
aF1.0
aF0.027419541072466025
aF0.046283623527119414
aF0.00377448058459481
aF0.011325049815361504
aF0.03896676352492428
atp110
aa(lp111
(g4
(g8
S'\x82C\xd6}h$S@'
p112
tp113
Rp114
(lp115
F185.29812601133733
aF0.01053822734373579
aF0.04506697583766611
aF1.2329725992170875e-09
aF0.9985543221517371
aF0.06490356715566839
aF0.11289994958070937
aF0.0090231339927399
aF0.02707374507381362
aF0.09323175264279768
atp116
a(g4
(g8
S'/\xfb\xa7\xb4\xd4%S@'
p117
tp118
Rp119
(lp120
F165.92790991540528
aF0.010655513003082151
aF0.05018175101925058
aF1.2466950213606116e-09
aF0.9977861145151422
aF0.07292378966044166
aF0.1251178639576356
aF0.010037234369949901
aF0.03013136411563632
aF0.10536283986993764
atp121
a(g4
(g8
S'{\xf3\xc4\xe01&S@'
p122
tp123
Rp124
(lp125
F168.8040824997311
aF0.010793634854041745
aF0.04939230423946739
aF1.2628552779228841e-09
aF1.0
aF0.07136313012961239
aF0.12273712969687614
aF0.009936344751249146
aF0.029685701026730973
aF0.10281936216583688
atp126
a(g4
(g8
S'y\x9e\x02<G&S@'
p127
tp128
Rp129
(lp130
F174.67738806444083
aF0.01041712274453401
aF0.04778718507431649
aF1.2188033611104793e-09
aF0.9996457783224227
aF0.06862772988589755
aF0.11937149835455332
aF0.00956512772711455
aF0.028699314965176772
aF0.09920608922235694
atp131
a(g4
(g8
S'\xd3\xe1H\xe8o&S@'
p132
tp133
Rp134
(lp135
F171.04572237659895
aF0.010416066228495115
aF0.04915759690764989
aF1.2186797487339284e-09
aF0.9990790236382993
aF0.07073578195049973
aF0.12193687744050859
aF0.009900881131807605
aF0.02954557556000958
aF0.10362992935457237
atp136
a(g4
(g8
S'8\xa9\xf2Z\x83&S@'
p137
tp138
Rp139
(lp140
F167.33699072653076
aF0.01061832262492204
aF0.05019680057990931
aF1.2423437471158787e-09
aF0.9955526476559479
aF0.07247438053777237
aF0.12358365436442753
aF0.01006669525539586
aF0.03021351517435238
aF0.10500287470296851
atp141
a(g4
(g8
S'\x1a\xc8\xfc\x17\x86&S@'
p142
tp143
Rp144
(lp145
F165.17669672893456
aF0.010762873359920929
aF0.050181878085866785
aF1.2592561831107488e-09
aF0.9942013911380606
aF0.07341083171419122
aF0.12561630073678848
aF0.010036971969472123
aF0.030113215693298293
aF0.10448211699401949
atp146
a(g4
(g8
S'\xc29\x7f\xef\xe3&S@'
p147
tp148
Rp149
(lp150
F172.82640423417436
aF0.0102613785710057
aF0.04898306316355165
aF1.2005812928076669e-09
aF0.9982288916121138
aF0.06956712909992288
aF0.12175791512635266
aF0.009807706338756318
aF0.02945182923986945
aF0.10052699486531107
atp151
a(g4
(g8
S"h1\xf4\xae\x05'S@"
p152
tp153
Rp154
(lp155
F166.62894889947367
aF0.010402430109534682
aF0.05090246574171836
aF1.217084322815558e-09
aF0.998239518262441
aF0.07393195791713174
aF0.12639907629080555
aF0.01020952531532812
aF0.030551054521803678
aF0.1061377930101989
atp156
a(g4
(g8
S'2\x8a"\xf2]\'S@'
p157
tp158
Rp159
(lp160
F175.92571494071885
aF0.010559543386418261
aF0.04773661935399484
aF1.2354665762109366e-09
aF0.9975765569706877
aF0.06913876610202707
aF0.1182941279168418
aF0.009592831645304029
aF0.02896278209005907
aF0.09932734783603987
atp161
a(g4
(g8
S"\xac\x8f]/\x85'S@"
p162
tp163
Rp164
(lp165
F163.3092602920516
aF0.010582427490084357
aF0.05112379806079108
aF1.2381440163398699e-09
aF0.9990931925054025
aF0.07476588177401454
aF0.1285721746965336
aF0.01032489996281546
aF0.030677831653353978
aF0.10813614468519353
atp166
a(g4
(g8
S"<] .\x96'S@"
p167
tp168
Rp169
(lp170
F158.67334572946635
aF0.010762069626580264
aF0.05242280265111535
aF1.259162146309891e-09
aF0.9959724995259468
aF0.07693913000810534
aF0.13063064585143228
aF0.010532167617300777
aF0.03151275617128248
aF0.10985232637068872
atp171
a(g4
(g8
S"\xe8\x9e\x88\xd3\xaa'S@"
p172
tp173
Rp174
(lp175
F169.4529155486805
aF0.010695532324131615
aF0.049530828676631194
aF1.251377281923399e-09
aF1.0
aF0.0709271130715303
aF0.12310358813432332
aF0.009969258489018808
aF0.02991182501395067
aF0.10268196506804213
atp176
a(g4
(g8
S"\xc7\x95\x8dz\xbc'S@"
p177
tp178
Rp179
(lp180
F160.89629808750422
aF0.010402597769912982
aF0.052712469237839905
aF1.2171039390798189e-09
aF0.9973079152504131
aF0.07517177837881886
aF0.1300075998774912
aF0.010544771231844073
aF0.03165528678688907
aF0.11095322996558639
atp181
a(g4
(g8
S'\x0f\xfb\xb2\xc8E(S@'
p182
tp183
Rp184
(lp185
F153.35302646585305
aF0.010654192358033531
aF0.05430272728753134
aF1.2465405058899233e-09
aF0.9996038384757979
aF0.07858716132991818
aF0.13448851225811048
aF0.010887017483296433
aF0.032583016886007614
aF0.11360571373464798
atp186
a(g4
(g8
S'E\xeb\xc4w`(S@'
p187
tp188
Rp189
(lp190
F156.40236066408224
aF0.010448338798676076
aF0.0538888974410842
aF1.222455639445101e-09
aF0.9977861145151422
aF0.07929907256295021
aF0.13509706210039005
aF0.01080156475836871
aF0.03235877506153825
aF0.11280804095231153
atp191
a(g4
(g8
S'\xe2\xc5\xc2+\x8a(S@'
p192
tp193
Rp194
(lp195
F165.68993241638526
aF0.010586428778948897
aF0.05074867833972655
aF1.2386121671370209e-09
aF0.995519095778648
aF0.07474007180136692
aF0.1257180256769855
aF0.010155746268053092
aF0.030727157429158523
aF0.10482794009849469
atp196
a(g4
(g8
S'\xa7\xfbW!\x9d(S@'
p197
tp198
Rp199
(lp200
F164.92456925774638
aF0.010493455657972023
aF0.05089084459773385
aF1.2277343119827267e-09
aF0.9979596831371552
aF0.07425232843065199
aF0.1262186585011966
aF0.010218052575778801
aF0.03087396762647293
aF0.1059065613434828
atp201
a(g4
(g8
S'\x85\xf6\xc6\xa6\xb0(S@'
p202
tp203
Rp204
(lp205
F155.36356802209326
aF0.010785092196840387
aF0.053668666522926796
aF1.2618557870303253e-09
aF0.9998413086884456
aF0.07797469062719965
aF0.1330938249127844
aF0.010788609432111415
aF0.03224081746255712
aF0.11482686027306822
atp206
a(g4
(g8
S'\r\x04\xc2\xd8\xff(S@'
p207
tp208
Rp209
(lp210
F151.46897497815763
aF0.010521229204121347
aF0.05566885748671113
aF1.2309838168821975e-09
aF0.997449603921444
aF0.07995715207191254
aF0.13779281633586624
aF0.011157599404077918
aF0.03353346983804647
aF0.11616490452905599
atp211
aasS'parameter_map'
p212
(dp213
S'Sample3.kt'
p214
I4
sS'Sample3.kr'
p215
I3
sS'Sample8.kf'
p216
I1
sS'Sample4.ci'
p217
I0
sS'Sample3.kf'
p218
I1
sS'Sample8.kr'
p219
I3
sS'Sample6.ci'
p220
I0
sS'Sample8.kt'
p221
I4
sS'Sample7.kf'
p222
I1
sS'Sample1.kf'
p223
I1
sS'Sample5.syn'
p224
I2
sS'Sample9.syn'
p225
I2
sS'Sample8.ci'
p226
I0
sS'Sample7.kr'
p227
I3
sS'Sample1.kr'
p228
I3
sS'Sample1.kt'
p229
I4
sS'Sample7.kt'
p230
I4
sS'Sample3.ci'
p231
I0
sS'Sample5.kt'
p232
I4
sS'Sample5.ci'
p233
I0
sS'Sample5.kr'
p234
I3
sS'Sample6.syn'
p235
I7
sS'Sample2.ci'
p236
I0
sS'Sample7.syn'
p237
I6
sS'Sample1.ci'
p238
I0
sS'Sample5.kf'
p239
I1
sS'Sample7.ci'
p240
I0
sS'Sample3.syn'
p241
I8
sS'Sample4.kf'
p242
I1
sS'Sample2.syn'
p243
I9
sS'Sample8.syn'
p244
I2
sS'Sample6.kt'
p245
I4
sS'Sample2.kr'
p246
I3
sS'Sample2.kt'
p247
I4
sS'Sample9.kf'
p248
I1
sS'Sample6.kr'
p249
I3
sS'Sample4.syn'
p250
I5
sS'Sample4.kt'
p251
I4
sS'Sample1.syn'
p252
I6
sS'Sample4.kr'
p253
I3
sS'Sample9.ci'
p254
I0
sS'Sample9.kr'
p255
I3
sS'Sample6.kf'
p256
I1
sS'Sample9.kt'
p257
I4
sS'Sample2.kf'
p258
I1
ss.