(dp0
S'islands'
p1
(lp2
(lp3
(cnumpy.core.multiarray
scalar
p4
(cnumpy
dtype
p5
(S'f8'
p6
I0
I1
tp7
Rp8
(I3
S'<'
p9
NNNI-1
I-1
I0
tp10
bS'6\xaf\x9e\xd8\xaa\x13S@'
p11
tp12
Rp13
(lp14
F2651.066668347514
aF0.009681044756055279
aF0.0032045239976464875
aF1.1326822364584677e-09
aF1.0
aF0.004667021919591874
aF0.007850731219380989
aF0.0006425488519242669
aF0.001923157312158245
aF0.006642769132804833
atp15
a(g4
(g8
S'\xb9\xd2\xbb\xa3)\x14S@'
p16
tp17
Rp18
(lp19
F2653.7413727557982
aF0.009552142688651651
aF0.003221189103118799
aF1.1176006945722432e-09
aF1.0
aF0.00463226711283145
aF0.00784152412255617
aF0.0006477558865879351
aF0.001933081403633208
aF0.006665494409035607
atp20
a(g4
(g8
S'\x19\x97oQ\x9e\x14S@'
p21
tp22
Rp23
(lp24
F2583.5679040856917
aF0.009808737912154888
aF0.0032882605764119814
aF1.1476223357221218e-09
aF1.0
aF0.004765936150117481
aF0.008077119506407798
aF0.000662489868119289
aF0.0019744848692201306
aF0.006777532864454766
atp25
a(g4
(g8
S' +\xec\xbb\xa3\x14S@'
p26
tp27
Rp28
(lp29
F2735.207420193554
aF0.009621813445012886
aF0.0031108033338903764
aF1.1257521730665077e-09
aF1.0
aF0.004422717497494575
aF0.0075961625835227736
aF0.0006239359311497492
aF0.0018687798142691533
aF0.006477917581015867
atp30
a(g4
(g8
S'\xad\x18\x1e\x81\xa7\x14S@'
p31
tp32
Rp33
(lp34
F2549.58568264032
aF0.009823464735788968
aF0.003306791491283953
aF1.1493453740873093e-09
aF1.0
aF0.004837387878871214
aF0.008140088811586187
aF0.000664295817308545
aF0.0019847539726213495
aF0.006793438585372259
atp35
a(g4
(g8
S'\x9eH\xa0{\xce\x14S@'
p36
tp37
Rp38
(lp39
F2400.966029812242
aF0.009776885849003696
aF0.003526619068009219
aF1.1438956443334325e-09
aF1.0
aF0.005120297948371426
aF0.008655773646514885
aF0.0007090794452609124
aF0.002122307402858433
aF0.007245534491221156
atp40
a(g4
(g8
S"'`\xc3\xd7\xd5\x14S@"
p41
tp42
Rp43
(lp44
F2736.954090493296
aF0.009608922134290465
aF0.0031393990691691953
aF1.1242438897119844e-09
aF1.0
aF0.004481255694841672
aF0.007701784877154991
aF0.000629042687737799
aF0.001886208259541464
aF0.006441560782413408
atp45
a(g4
(g8
S'\xec\xf4\xd5^\xde\x14S@'
p46
tp47
Rp48
(lp49
F2690.0251217593673
aF0.009916173490276943
aF0.0031352449231642153
aF1.1601922983624022e-09
aF1.0
aF0.004602743321688867
aF0.007724533622026504
aF0.0006288909304161821
aF0.001885888757146676
aF0.006483095342842291
atp50
a(g4
(g8
S'\x12`\xfa\xf0\xde\x14S@'
p51
tp52
Rp53
(lp54
F2647.613569155947
aF0.01003020675743128
aF0.0031813603540565226
aF1.1735341906194599e-09
aF1.0
aF0.004577707258649709
aF0.0077960839514613495
aF0.0006390588488523892
aF0.0019106399592985362
aF0.006638989676268491
atp55
a(g4
(g8
S'\x15+T@\xe2\x14S@'
p56
tp57
Rp58
(lp59
F2744.9559988399055
aF0.00983250482567068
aF0.0030809851531262656
aF1.1504030646034697e-09
aF1.0
aF0.004447667280723256
aF0.007482558003642109
aF0.000617567098291119
aF0.001853100003364922
aF0.00632345287436197
atp60
a(g4
(g8
S'\xbf\x9d\xfe/\xec\x14S@'
p61
tp62
Rp63
(lp64
F2734.9446402722992
aF0.009916725299910435
aF0.0030711416773763624
aF1.160256860089521e-09
aF1.0
aF0.004454801493927142
aF0.0075869858100917845
aF0.0006171908895705488
aF0.0018456123887708538
aF0.0063537883053667275
atp65
a(g4
(g8
S'\x86\x12\xc2o\xf8\x14S@'
p66
tp67
Rp68
(lp69
F2703.2935375925313
aF0.009506488766435846
aF0.0031709549697366258
aF1.112259185672994e-09
aF1.0
aF0.004589860668545445
aF0.007789396829919981
aF0.0006389444205545976
aF0.0019036119523525871
aF0.006463091265824064
atp70
a(g4
(g8
S'K\xcf \x08\x06\x15S@'
p71
tp72
Rp73
(lp74
F2581.2007461044227
aF0.009605124878061989
aF0.0033174417298932747
aF1.1237996107332527e-09
aF1.0
aF0.004754692666826064
aF0.00805445378691371
aF0.0006659410121490123
aF0.001992789773155983
aF0.006950408891384214
atp75
a(g4
(g8
S'\x91U\x1b\r\x13\x15S@'
p76
tp77
Rp78
(lp79
F2425.4890299139865
aF0.009512327609712662
aF0.0035191372176153458
aF1.1129423303363814e-09
aF0.9657588518482809
aF0.00507521936064888
aF0.008564841797690029
aF0.0007059928580149643
aF0.0021178595706810863
aF0.007250496442493595
atp80
a(g4
(g8
S's\x82ut*\x15S@'
p81
tp82
Rp83
(lp84
F2805.126096889726
aF0.00959357721188739
aF0.0030329727582010975
aF1.1224485337908247e-09
aF1.0
aF0.004327923649374351
aF0.007502286898804488
aF0.0006091694762568651
aF0.0018232349656475187
aF0.006197518557545988
atp85
a(g4
(g8
S'\x7f\xd5\xd1\x8a:\x15S@'
p86
tp87
Rp88
(lp89
F2786.2396019228104
aF0.009634088976006488
aF0.003061552782640169
aF1.1271884101927592e-09
aF0.9571985648103511
aF0.0044069180391286536
aF0.007479333154963529
aF0.0006187006733841961
aF0.0018383120065962365
aF0.0063738892674025036
atp90
a(g4
(g8
S'\x0bG@N\x8d\x15S@'
p91
tp92
Rp93
(lp94
F2717.2208244782046
aF0.009963271825746271
aF0.0031116505106973907
aF1.1657028036123137e-09
aF1.0
aF0.004503466105199128
aF0.007721831598584828
aF0.0006233711908047746
aF0.00187024206607204
aF0.00632225848423284
atp95
a(g4
(g8
S'B"_\x86\xa4\x15S@'
p96
tp97
Rp98
(lp99
F2815.2666011256656
aF0.009925313617306721
aF0.0029927974386765024
aF1.1612616932248863e-09
aF0.9571985648103511
aF0.004383299006214587
aF0.007385740754539795
aF0.0006036087084467937
aF0.0018005578894070109
aF0.006227970014447851
atp100
a(g4
(g8
S'\xba\xaa3A\xd8\x15S@'
p101
tp102
Rp103
(lp104
F2834.212894793112
aF0.009778764713523578
aF0.00296790305267146
aF1.1441154714822585e-09
aF0.9853712607392152
aF0.004297714091595301
aF0.007458138812244759
aF0.0005943801839266621
aF0.0017822746533847156
aF0.006246994862972737
atp105
a(g4
(g8
S'Q\xd8\rp\xeb\x16S@'
p106
tp107
Rp108
(lp109
F3049.7090807658
aF0.010213184284659877
aF0.002769515425017062
aF1.1949425613052056e-09
aF1.0
aF0.00399817684891672
aF0.006746266461700033
aF0.0005586235497424233
aF0.0016618809225980866
aF0.005594504892130025
atp110
aa(lp111
(g4
(g8
S'\xb64]\xbe\xc9\x18S@'
p112
tp113
Rp114
(lp115
F1445.1540314352096
aF0.009494834067889103
aF0.00587720657348214
aF1.110895585943025e-09
aF1.0
aF0.008724552069543203
aF0.014338442035300148
aF0.0011963227694694043
aF0.003533225172713721
aF0.012287053032895207
atp116
a(g4
(g8
S'\x18\x9e:\x862\x1fS@'
p117
tp118
Rp119
(lp120
F476.9841989462181
aF0.010560624656519031
aF0.01765234043922575
aF1.2355930848127266e-09
aF0.9973503433046811
aF0.025181188332388808
aF0.042957170061322235
aF0.0035388445274144374
aF0.010740450704844109
aF0.03676662546730165
atp121
a(g4
(g8
S'\xae\x05\xc5N\x15)S@'
p122
tp123
Rp124
(lp125
F154.34034328718275
aF0.01068159314385572
aF0.054873532298458795
aF1.2497463978311192e-09
aF1.0
aF0.0779754950671541
aF0.13505824178864959
aF0.010996099998570883
aF0.03294945461361842
aF0.11238576972346678
atp126
a(g4
(g8
S'K\x04\xfc\x92k*S@'
p127
tp128
Rp129
(lp130
F145.36827512983476
aF0.011227048945162806
aF0.05697979323170184
aF1.3135647265840482e-09
aF0.9912167492834937
aF0.08228781723543223
aF0.1407790133036125
aF0.011440919133567548
aF0.034244662108571716
aF0.12033929938520153
atp131
a(g4
(g8
S'\xe4\x06\xac<=+S@'
p132
tp133
Rp134
(lp135
F138.0001903600564
aF0.010608768396086979
aF0.06091440419327164
aF1.2412259023421766e-09
aF0.9959076716352556
aF0.08762321712348492
aF0.15247508818715727
aF0.012225252888240744
aF0.036609987432468856
aF0.12804251879165143
atp136
a(g4
(g8
S'&l\xf2\xe4j,S@'
p137
tp138
Rp139
(lp140
F139.1179376268655
aF0.011039950244673318
aF0.05956137056972252
aF1.2916741786267782e-09
aF0.9938704298402861
aF0.08654026050452593
aF0.1475824921909516
aF0.012003993288985383
aF0.03597060358625267
aF0.12493726753770765
atp141
a(g4
(g8
S'|\x10\x1fhl,S@'
p142
tp143
Rp144
(lp145
F144.16618266933708
aF0.0114034439268496
aF0.057081316944680556
aF1.3342029394414031e-09
aF0.9961066388303333
aF0.0847304735774455
aF0.1425866613140573
aF0.011453228256821286
aF0.03446410096134352
aF0.11958154245144995
atp146
a(g4
(g8
S'\x1f7\x10\xe8\x9f,S@'
p147
tp148
Rp149
(lp150
F426.85105239829085
aF0.011207822708941955
aF0.01939580058016175
aF1.3113152569462088e-09
aF0.999456516034699
aF0.028041985927844803
aF0.04654927879904273
aF0.003946311433661665
aF0.011964263918342651
aF0.03924241768846563
atp151
a(g4
(g8
S'\x99\x9du\xfc>-S@'
p152
tp153
Rp154
(lp155
F144.83401181405802
aF0.011021633771267908
aF0.0570249148819146
aF1.2895311512383454e-09
aF0.9890209366043671
aF0.08337344227632701
aF0.14158241241936576
aF0.011639612414533899
aF0.03434219048758141
aF0.12000251852575639
atp156
a(g4
(g8
S'g3/:\x91-S@'
p157
tp158
Rp159
(lp160
F133.82625820555054
aF0.010769359775653867
aF0.06256775428292094
aF1.2600150937515025e-09
aF0.9820951848405978
aF0.09307161138590189
aF0.15751932510801994
aF0.012535711139750666
aF0.03756145167517511
aF0.12940787276855326
atp161
a(g4
(g8
S'\xdd\xf1\xb3\x9e\xb4-S@'
p162
tp163
Rp164
(lp165
F135.04231269327778
aF0.010299618239809714
aF0.06226779976018467
aF1.2050553340577366e-09
aF1.0
aF0.09014173245839863
aF0.15731879262740486
aF0.012537729479852206
aF0.037360752298280904
aF0.12902039918419497
atp166
a(g4
(g8
S'A\x96U\xc1\xe7-S@'
p167
tp168
Rp169
(lp170
F138.98714536747687
aF0.010999185749648352
aF0.05982806144155621
aF1.2869047327088572e-09
aF1.0
aF0.08822118972512011
aF0.1483335863329419
aF0.012087746422256993
aF0.03628087413887075
aF0.12469492503915836
atp171
a(g4
(g8
S'\x0ft\xbfD\x06.S@'
p172
tp173
Rp174
(lp175
F152.03988573593273
aF0.010911395003149502
aF0.0540993020360109
aF1.2766332153684917e-09
aF0.9955639445006959
aF0.07828333773108355
aF0.13803536184057444
aF0.010973799314146567
aF0.0326718981471813
aF0.11192445265544616
atp176
a(g4
(g8
S'd\x05\x01\x95\x18.S@'
p177
tp178
Rp179
(lp180
F134.80294131029174
aF0.011132159026483054
aF0.06160333901966776
aF1.3024626060985174e-09
aF1.0
aF0.08890239812926379
aF0.15277945960876677
aF0.01241935385290841
aF0.037351949147074424
aF0.12990368917594933
atp181
a(g4
(g8
S'\x8b\xd6f?j.S@'
p182
tp183
Rp184
(lp185
F160.59663937678602
aF0.011664240125966603
aF0.0509389817845256
aF1.3647160947380926e-09
aF0.978867222756138
aF0.07461676119125771
aF0.1265043347799294
aF0.010277818417187144
aF0.030943184123542185
aF0.1048051239140115
atp186
a(g4
(g8
S's\xe9]P\xbc.S@'
p187
tp188
Rp189
(lp190
F147.50532839294175
aF0.011660212894218222
aF0.05575863687296111
aF1.364244908623532e-09
aF1.0
aF0.0828449510930639
aF0.13855127177736717
aF0.011204861655613348
aF0.03370292956717852
aF0.11825036961988203
atp191
a(g4
(g8
S'\xa6bT\xbf7/S@'
p192
tp193
Rp194
(lp195
F128.9560279607455
aF0.011330189645336669
aF0.0640706251258255
aF1.3256321885043902e-09
aF0.9938704298402861
aF0.09217015957687957
aF0.15961411094280714
aF0.012862655813709977
aF0.03886556020611268
aF0.13371015467006547
atp196
a(g4
(g8
S'\xc1\xe6\xe33\xd9/S@'
p197
tp198
Rp199
(lp200
F127.9407167488897
aF0.01100476466712395
aF0.06537884697149872
aF1.2875574660535022e-09
aF0.9797817073357618
aF0.09648455397875695
aF0.16168436541120387
aF0.01322292454056223
aF0.039287355479674824
aF0.1353040122850673
atp201
a(g4
(g8
S'R \x05\xcb\xa10S@'
p202
tp203
Rp204
(lp205
F132.4509064506569
aF0.011727070427106287
aF0.062116031762221594
aF1.3720672399714357e-09
aF1.0
aF0.08777674795129942
aF0.1577532075284955
aF0.012442347957810166
aF0.03738357675581974
aF0.13040476513982835
atp206
a(g4
(g8
S'\x19D\xefkP2S@'
p207
tp208
Rp209
(lp210
F120.21613847354247
aF0.010362767943507923
aF0.07014388495612443
aF1.212443849390427e-09
aF0.9978446696729248
aF0.10221793420327402
aF0.1727459544842198
aF0.01416692719310548
aF0.042094560882321996
aF0.14647772761838973
atp211
aa(lp212
(g4
(g8
S'M%((Y\x13S@'
p213
tp214
Rp215
(lp216
F3843.7518102103368
aF0.009672000351305925
aF0.0022205013936387303
aF1.1316240411027933e-09
aF1.0
aF0.003199027136911342
aF0.005465119116915298
aF0.00044431952424121726
aF0.0013327089129714482
aF0.004590729929878241
atp217
a(g4
(g8
S'G\xa3s\x11\x97\x13S@'
p218
tp219
Rp220
(lp221
F4486.566929507901
aF0.009798280960897654
aF0.0018964507467106415
aF1.1463988724250256e-09
aF1.0
aF0.002730887271308573
aF0.00462605753352736
aF0.0003795619199061476
aF0.0011399455658959912
aF0.003880214500097644
atp222
a(g4
(g8
S'\xae/\xa5\xcc\x99\x13S@'
p223
tp224
Rp225
(lp226
F4063.5660343182726
aF0.009520728796832866
aF0.002095420721009687
aF1.1139252692294454e-09
aF1.0
aF0.00304963727667505
aF0.005125212559589095
aF0.00042014523522880553
aF0.001258713081211328
aF0.004339625036153333
atp227
a(g4
(g8
S'\xbd\x99H\xd2\xa3\x13S@'
p228
tp229
Rp230
(lp231
F4382.019318736569
aF0.009637477138908536
aF0.0019368966413885632
aF1.1275848252522988e-09
aF1.0
aF0.002796049419172565
aF0.004756945130787015
aF0.0003884194348204467
aF0.0011638187796203564
aF0.004051223636436171
atp232
a(g4
(g8
S'\xdf\x0b^\xf0\xbe\x13S@'
p233
tp234
Rp235
(lp236
F3771.6015638056656
aF0.009543357293714631
aF0.0022529884407273123
aF1.1165728033646118e-09
aF1.0
aF0.003288467879077092
aF0.005558735432408884
aF0.000450698942342988
aF0.0013519769032937265
aF0.004748035025272366
atp237
a(g4
(g8
S'(\x13&\xde\xc2\x13S@'
p238
tp239
Rp240
(lp241
F3962.72516336882
aF0.00970331958474304
aF0.0021506004342190374
aF1.1352883914149358e-09
aF1.0
aF0.0031175886057719046
aF0.005254482136496921
aF0.0004315025761699645
aF0.001292299747139929
aF0.004412665939380736
atp242
a(g4
(g8
S'\xea*\x14f\x01\x14S@'
p243
tp244
Rp245
(lp246
F3872.5564938314965
aF0.009355474079676369
aF0.002220539904648088
aF1.0945904673221352e-09
aF1.0
aF0.0031924538384445486
aF0.00544334449500987
aF0.0004454808118958423
aF0.0013323828249873428
aF0.004627094017625735
atp247
a(g4
(g8
S'GS\xdaP\x05\x14S@'
p248
tp249
Rp250
(lp251
F3886.94782597371
aF0.00978315012029878
aF0.0021799318770022898
aF1.1446285640749574e-09
aF1.0
aF0.0031964891638658934
aF0.005372654479610022
aF0.00043715685556401315
aF0.0013093530113523725
aF0.004529414795804048
atp252
a(g4
(g8
S'\xfa \xf0{\x05\x14S@'
p253
tp254
Rp255
(lp256
F3435.948716767027
aF0.009806346462517119
aF0.002457635944642414
aF1.147342536114503e-09
aF1.0
aF0.0035575418805045417
aF0.006094997719525263
aF0.0004918770725364383
aF0.001477479504194387
aF0.005105351360475984
atp257
a(g4
(g8
S'\\0[\xbb\x06\x14S@'
p258
tp259
Rp260
(lp261
F3962.7443018373356
aF0.009516277901665487
aF0.002155680905214611
aF1.113404514494862e-09
aF1.0
aF0.003080652910737361
aF0.005325094815274823
aF0.00043275764596585945
aF0.0012936946327471576
aF0.0044304626483830795
atp262
a(g4
(g8
S'\x942*\x90\x13\x14S@'
p263
tp264
Rp265
(lp266
F4553.358933245265
aF0.009586942089198268
aF0.0018660096366268331
aF1.1216722244361974e-09
aF1.0
aF0.002671788746408767
aF0.0046044729404918815
aF0.000374399615849269
aF0.001122024994506436
aF0.003885729213359431
atp267
a(g4
(g8
S'.\x88\xe5W>\x14S@'
p268
tp269
Rp270
(lp271
F3697.5530736191413
aF0.009526574198856282
aF0.002306099240881076
aF1.114609181266185e-09
aF1.0
aF0.003359656995055142
aF0.005667268422651686
aF0.0004648443501153869
aF0.001385148741963852
aF0.004795322143222215
atp272
a(g4
(g8
S'\x0e\x0cj\x8dA\x14S@'
p273
tp274
Rp275
(lp276
F4199.43318758085
aF0.009634367634618862
aF0.0020191258459416627
aF1.127221013250407e-09
aF1.0
aF0.0029482172421544535
aF0.004992047333939088
aF0.00040528565835997333
aF0.0012146165495157222
aF0.004236359893330833
atp277
a(g4
(g8
S'w$z\xe0_\x14S@'
p278
tp279
Rp280
(lp281
F4104.714481895044
aF0.009693700637257404
aF0.0020775710969216806
aF1.1341629745591163e-09
aF1.0
aF0.0030218002143234126
aF0.0051114072949426425
aF0.0004161193277831532
aF0.0012487156630688054
aF0.004215908466424488
atp282
a(g4
(g8
S'\xc2\x80G\xba\x7f\x14S@'
p283
tp284
Rp285
(lp286
F3820.011097506579
aF0.009483770385634997
aF0.002234253417767177
aF1.1096011351192947e-09
aF1.0
aF0.0032962906576894076
aF0.00553577606371376
aF0.00044783227830810503
aF0.0013411040298626148
aF0.004637397115822807
atp287
a(g4
(g8
S'\xad\x88\xcd\x07\x89\x14S@'
p288
tp289
Rp290
(lp291
F3848.8904329193256
aF0.009794443563788946
aF0.0021880344336889287
aF1.1459498969633068e-09
aF1.0
aF0.0032311357507661905
aF0.0053714903620815276
aF0.00043862522659224204
aF0.0013136811930971055
aF0.004566172102391864
atp292
a(g4
(g8
S'\xca\xc9\x14\xe5\x9a\x14S@'
p293
tp294
Rp295
(lp296
F4094.4909165583795
aF0.009860361977915408
aF0.0020716582958923064
aF1.1536623514161029e-09
aF1.0
aF0.0029470244801033363
aF0.005065833534511583
aF0.00041506614198044846
aF0.0012449619776851583
aF0.00434155122666062
atp297
a(g4
(g8
S'LQ\xadC\xb6\x14S@'
p298
tp299
Rp300
(lp301
F3750.633414511477
aF0.009313722347276066
aF0.0022893948025882235
aF1.0897055146312997e-09
aF1.0
aF0.0032842089277717013
aF0.00565950919937697
aF0.0004586597861094549
aF0.0013767071958450316
aF0.004694334617779035
atp302
a(g4
(g8
S'lB\x06o\xe5\x14S@'
p303
tp304
Rp305
(lp306
F3475.1113235985895
aF0.009604438793156284
aF0.0024576667534499
aF1.1237193387992852e-09
aF1.0
aF0.0034899629119788415
aF0.00607757802200092
aF0.0004928061026601382
aF0.0014772186338071027
aF0.005113384729826087
atp307
a(g4
(g8
S'\x08\xafh\xf1\xec\x14S@'
p308
tp309
Rp310
(lp311
F4241.469504640784
aF0.009783123818171332
aF0.002003339539136523
aF1.144625486726046e-09
aF1.0
aF0.0028507876475284983
aF0.004861515711429898
aF0.00040301197945765235
aF0.0012047077929203712
aF0.004158873090819531
atp312
aa(lp313
(g4
(g8
S'\xb9.\x1f\xef^\x16S@'
p314
tp315
Rp316
(lp317
F1760.0265519451527
aF0.010012092968370065
aF0.004769089426120753
aF1.1714148772992977e-09
aF0.9929720368824796
aF0.006793826225015444
aF0.011651761259319946
aF0.0009541875903787634
aF0.002863336776032936
aF0.010011138966265858
atp318
a(g4
(g8
S'\xd2O\x94\x84m\x16S@'
p319
tp320
Rp321
(lp322
F1844.9252969816039
aF0.009658045555246852
aF0.004615587607923275
aF1.1299913299638819e-09
aF0.9704825549064142
aF0.006715577927686815
aF0.011326622250791408
aF0.0009289877679587161
aF0.002789751964596951
aF0.009490789207646372
atp323
a(g4
(g8
S'S-\xd1K\x7f\x16S@'
p324
tp325
Rp326
(lp327
F1578.2887797877966
aF0.00972969604716375
aF0.005390392971155815
aF1.1383744375181587e-09
aF0.9437762950598365
aF0.007877123821699805
aF0.013425231991483514
aF0.0010809702320053818
aF0.003236941032271359
aF0.011263685086163874
atp328
a(g4
(g8
S'9R\xeb\x89T\x17S@'
p329
tp330
Rp331
(lp332
F1231.5902367523595
aF0.010057053998011682
aF0.006927314520691394
aF1.1766753177673669e-09
aF1.0
aF0.010025725388920948
aF0.016780066936264094
aF0.001386276094709873
aF0.004163346888160445
aF0.01424045831130174
atp333
a(g4
(g8
S'n|\xb3\xb2\x98\x17S@'
p334
tp335
Rp336
(lp337
F1725.4726075081132
aF0.009936406360352241
aF0.004882337974197409
aF1.1625595441612123e-09
aF1.0
aF0.0070503087927268875
aF0.011977437688501746
aF0.0009911846169962948
aF0.002947916219999175
aF0.010212078584654016
atp338
a(g4
(g8
S'Nd\xd8\xcc\xc1\x17S@'
p339
tp340
Rp341
(lp342
F1145.5573728183986
aF0.009919180781129562
aF0.007294688624679936
aF1.1605441513921587e-09
aF1.0
aF0.01059026904648279
aF0.01799802094851824
aF0.0014705657257101353
aF0.004381371612671387
aF0.015249873294842316
atp343
a(g4
(g8
S'YSB0\xc4\x17S@'
p344
tp345
Rp346
(lp347
F1657.526194873503
aF0.009482736872545923
aF0.005193457702205931
aF1.109480214087873e-09
aF0.9648601844123978
aF0.007505985910651478
aF0.012578986480831646
aF0.0010450145494587599
aF0.0031187106110077785
aF0.01039331409780933
atp348
a(g4
(g8
S'8\x89no\xe1\x17S@'
p349
tp350
Rp351
(lp352
F1239.1765720490505
aF0.009602704966895487
aF0.006876334601020562
aF1.123516481126772e-09
aF0.9479930729303487
aF0.009770061658045016
aF0.016774669467986694
aF0.0013817098738254942
aF0.0041448107833048885
aF0.014084139851383418
atp353
a(g4
(g8
S'\xa71\xfeV\xe5\x17S@'
p354
tp355
Rp356
(lp357
F1100.5215369458183
aF0.010051319913032727
aF0.007655168738331342
aF1.1760044298248292e-09
aF0.9560752305154974
aF0.011072657051175312
aF0.01911317973076923
aF0.0015422479132106617
aF0.004602887832992064
aF0.01581163551167378
atp358
a(g4
(g8
S'\x1en[v\x06\x18S@'
p359
tp360
Rp361
(lp362
F1351.458105461867
aF0.009476512819364544
aF0.00632166073261803
aF1.1087519998656517e-09
aF0.9718881475299183
aF0.009257481035258615
aF0.01545143008300226
aF0.0012842280320843526
aF0.003801845680169373
aF0.0129916023795328
atp363
a(g4
(g8
S'ui\x98\xdd\x11\x18S@'
p364
tp365
Rp366
(lp367
F1637.1795862255387
aF0.009600982411434594
aF0.005260062886886603
aF1.1233149421378475e-09
aF0.9437762950598365
aF0.007531765034378183
aF0.012998735818484205
aF0.0010536110842756445
aF0.003171621803603222
aF0.010754526914342831
atp368
a(g4
(g8
S'LQ\xc0\xc7\x12\x18S@'
p369
tp370
Rp371
(lp372
F1952.847109930274
aF0.009541950664193093
aF0.004342695486683314
aF1.116408227710592e-09
aF0.9704825549064142
aF0.006351504594634452
aF0.01054604155396615
aF0.0008700074106511713
aF0.002634113217911677
aF0.009109527245006304
atp373
a(g4
(g8
S'\xbf\x802l\xca\x18S@'
p374
tp375
Rp376
(lp377
F1181.5082899625008
aF0.010173148889065441
aF0.007163498696190488
aF1.1902584200206565e-09
aF1.0
aF0.010237924183970687
aF0.01732927424783635
aF0.0014452564520174179
aF0.004318985634845719
aF0.014817489812907855
atp378
a(g4
(g8
S'\xc3\x03\xc0]\xe7\x18S@'
p379
tp380
Rp381
(lp382
F1884.837490121437
aF0.009685760814900916
aF0.004520898032896749
aF1.1332340153434072e-09
aF1.0
aF0.006502720923887257
aF0.011087175445640978
aF0.0009085041559040804
aF0.0027643903504890126
aF0.009335937375531187
atp383
a(g4
(g8
S'w\x84%\x9d\xf1\x18S@'
p384
tp385
Rp386
(lp387
F1255.4538589674219
aF0.00950810853578455
aF0.006823050453276024
aF1.1124486986867923e-09
aF0.9648601844123978
aF0.009749438359063651
aF0.016438869997864647
aF0.0013748326459719865
aF0.004102481829228534
aF0.013795169598156617
atp388
a(g4
(g8
S'\xe8\x8f\x15\xa3\t\x19S@'
p389
tp390
Rp391
(lp392
F2356.876878630657
aF0.00991610902976134
aF0.0035650657249679026
aF1.1601847564820769e-09
aF1.0
aF0.005071637710741895
aF0.008889530874875345
aF0.0007171686812045633
aF0.0021670242583771066
aF0.007490594184376186
atp393
a(g4
(g8
S'\xe7\x8f\xb3\x7f\xc5\x19S@'
p394
tp395
Rp396
(lp397
F1460.7391600156798
aF0.009582158949523774
aF0.005899864780578366
aF1.1211125970942817e-09
aF1.0
aF0.008263992692676669
aF0.01440771550741922
aF0.001195532309549451
aF0.0035495441396234196
aF0.011938764716127976
atp398
a(g4
(g8
S'\x0f\xaav\xfd\x99\x1aS@'
p399
tp400
Rp401
(lp402
F1691.5367163332269
aF0.009917305974344464
aF0.0050111671044797855
aF1.1603247989983023e-09
aF0.9718881475299183
aF0.0070835031019131555
aF0.012517496784620285
aF0.0010105471383056723
aF0.0030349862907963396
aF0.010192991978685702
atp403
a(g4
(g8
S'9\x93.\xceM\x1bS@'
p404
tp405
Rp406
(lp407
F2571.113254381867
aF0.010642852539267595
aF0.0032142255154831737
aF1.2452137470943087e-09
aF0.9943776295059836
aF0.004640816142037007
aF0.007935843986822604
aF0.0006439025679258141
aF0.0019545552691175266
aF0.006694444876158911
atp408
a(g4
(g8
S'\xe7Zzz\xd1\x1cS@'
p409
tp410
Rp411
(lp412
F1114.6461277551034
aF0.010405342879427027
aF0.007428293820134816
aF1.2174251168929622e-09
aF0.9718881475299183
aF0.010535337343684552
aF0.018539115335577727
aF0.0014861396487648366
aF0.004497688522314017
aF0.015832093216167922
atp413
aa(lp414
(g4
(g8
S'\x11iy\x08\xdc\x14S@'
p415
tp416
Rp417
(lp418
F1178.8640067339384
aF0.009752031491508212
aF0.0071900504975813
aF1.1409876845064608e-09
aF1.0
aF0.010381589071744506
aF0.017730532463316954
aF0.0014380253553186357
aF0.004316557775414689
aF0.014957430817965207
atp419
a(g4
(g8
S'\xcb8\xa6\xc0\xe6\x14S@'
p420
tp421
Rp422
(lp423
F1372.1267730848244
aF0.009730453608656832
aF0.006161906007142308
aF1.1384630722128492e-09
aF1.0
aF0.008956517988409483
aF0.015192241239369611
aF0.0012325316990311507
aF0.0037035898342269377
aF0.012813139587112886
atp424
a(g4
(g8
S'qA\xdff\x0f\x15S@'
p425
tp426
Rp427
(lp428
F1271.4809853124475
aF0.00990598901337753
aF0.006663274532619956
aF1.159000714565171e-09
aF1.0
aF0.00959206832281394
aF0.016330341736467465
aF0.0013353873717822234
aF0.004000083488874027
aF0.013862249980314226
atp429
a(g4
(g8
S'\x9d\x1eQ\x9a@\x15S@'
p430
tp431
Rp432
(lp433
F1259.8660159401998
aF0.0096587853044073
aF0.006745658127060868
aF1.130077880615654e-09
aF1.0
aF0.009722016905228286
aF0.016541561833844674
aF0.0013527288239220728
aF0.004053711809849885
aF0.014072753344368659
atp434
a(g4
(g8
S'\x16#\x92oC\x15S@'
p435
tp436
Rp437
(lp438
F1200.7325376077802
aF0.009719685353539745
aF0.007067998064765315
aF1.1372031863641503e-09
aF1.0
aF0.010185280011605246
aF0.01738405547846214
aF0.001416973421448073
aF0.004247773943924841
aF0.014715215275470612
atp439
a(g4
(g8
S'2m\xc8\x1e[\x15S@'
p440
tp441
Rp442
(lp443
F1180.274023778049
aF0.00957492349790135
aF0.007241191396845866
aF1.1202660492544579e-09
aF1.0
aF0.010405040715591235
aF0.017702107102674367
aF0.001454394279306566
aF0.004345192771763366
aF0.014988328119729156
atp444
a(g4
(g8
S'\x89\x07Rb\\\x15S@'
p445
tp446
Rp447
(lp448
F1405.9139863764422
aF0.009791877251346516
aF0.0060093404661223275
aF1.1456496384075424e-09
aF1.0
aF0.00863242090703372
aF0.014811640195464982
aF0.0012062167816929473
aF0.003610967436534057
aF0.012510370158994642
atp449
a(g4
(g8
S'\x86\xd9\x83\xccn\x15S@'
p450
tp451
Rp452
(lp453
F1245.981688228809
aF0.009785923949038253
aF0.006825698440570672
aF1.1449531020374755e-09
aF1.0
aF0.009715395158492323
aF0.016739080619716976
aF0.001367701319671606
aF0.0040990494433950095
aF0.014005764308172517
atp454
a(g4
(g8
S'\xa7W\xd5E\x84\x15S@'
p455
tp456
Rp457
(lp458
F1348.29917377281
aF0.009662771787268617
aF0.006329563161403626
aF1.1305442991104283e-09
aF1.0
aF0.0091512992830784
aF0.015620753529165634
aF0.0012660284764698135
aF0.0038110854694080962
aF0.013166475993611445
atp459
a(g4
(g8
S'\x9d\xbb\x9a\xca\x8b\x15S@'
p460
tp461
Rp462
(lp463
F1444.515254547311
aF0.009892779716126194
aF0.005869928897864601
aF1.1574552267867647e-09
aF1.0
aF0.008371962898123838
aF0.014458344371941264
aF0.0011742682661352074
aF0.0035321874827770766
aF0.012219307714165484
atp464
a(g4
(g8
S"\xce'\x9e~\x9e\x15S@"
p465
tp466
Rp467
(lp468
F1277.4995582069027
aF0.009463735651508683
aF0.006719049744094508
aF1.1072570712265158e-09
aF1.0
aF0.009650231279113627
aF0.01643619813325855
aF0.0013461437134656856
aF0.004039075991246562
aF0.013975603512774607
atp469
a(g4
(g8
S'\x1a;7=\xa0\x15S@'
p470
tp471
Rp472
(lp473
F1149.8363496486597
aF0.009598728419663137
aF0.007428351064223999
aF1.123051225100587e-09
aF1.0
aF0.010669546660720241
aF0.018202625617314873
aF0.0014915735151548903
aF0.004462583985610294
aF0.0154284398587244
atp474
a(g4
(g8
S'l\xc1\xafO\xa3\x15S@'
p475
tp476
Rp477
(lp478
F1343.4843154572459
aF0.010016574476763695
aF0.006284942992223985
aF1.1719392137813523e-09
aF1.0
aF0.00910476891803865
aF0.015536068411732766
aF0.0012574234031230438
aF0.0037798914675100685
aF0.01307579316764314
atp479
a(g4
(g8
S'tl\xb1\xd0\xa7\x15S@'
p480
tp481
Rp482
(lp483
F1323.8751878712383
aF0.010081317650377633
aF0.00634312441866691
aF1.179514165094183e-09
aF1.0
aF0.009139301788087285
aF0.01563386101877426
aF0.0012724673434783256
aF0.0038071125695020615
aF0.013176967643149332
atp484
a(g4
(g8
S'\xfd\x19K\xae\xb0\x15S@'
p485
tp486
Rp487
(lp488
F1262.3222589238374
aF0.009681538087794851
aF0.006716138292284017
aF1.1327399562719977e-09
aF1.0
aF0.009887423810940581
aF0.016657073692340173
aF0.0013449645834346885
aF0.004036060164486918
aF0.013977157648763852
atp489
a(g4
(g8
S'\x87\x8f\x0b\xf4\xbf\x15S@'
p490
tp491
Rp492
(lp493
F1241.558539741467
aF0.009377132825566955
aF0.006926904730839813
aF1.0971245405913338e-09
aF1.0
aF0.00999673542645155
aF0.016927823059899004
aF0.0013862690431743646
aF0.004165511194353292
aF0.0143431675487817
atp494
a(g4
(g8
S'R\xa0\x1b\x99\xc8\x15S@'
p495
tp496
Rp497
(lp498
F1182.3080944990884
aF0.009718834503833493
aF0.007222125056398671
aF1.1371036369485187e-09
aF1.0
aF0.010261814206782682
aF0.01767695529698244
aF0.0014464148772939858
aF0.004341914529649511
aF0.01493396038814794
atp499
a(g4
(g8
S'\x14\rbP\xd0\x15S@'
p500
tp501
Rp502
(lp503
F1093.2289005999457
aF0.009643857194576045
aF0.007805457432581066
aF1.1283312917653973e-09
aF1.0
aF0.01113857959947766
aF0.019086926337533845
aF0.0015645653572563091
aF0.004691512515547623
aF0.016102369323665152
atp504
a(g4
(g8
S'\xeb)\x94\xe0\xd2\x15S@'
p505
tp506
Rp507
(lp508
F1207.7520000543673
aF0.01007778090775747
aF0.006978574662015465
aF1.179100366207624e-09
aF1.0
aF0.010060605623084687
aF0.017134436536832904
aF0.001398907163056638
aF0.004193994356190622
aF0.014513248029229117
atp509
a(g4
(g8
S'k\xbd%b\xf6\x15S@'
p510
tp511
Rp512
(lp513
F1209.7561273632293
aF0.009512737726885328
aF0.007048532657304173
aF1.1129903140455835e-09
aF1.0
aF0.010230662215417751
aF0.01751166451543532
aF0.0014143189511426565
aF0.004232974827181603
aF0.014763208698009163
atp514
aa(lp515
(g4
(g8
S'$\x08\x87/\xb5/S@'
p516
tp517
Rp518
(lp519
F124.71542305607173
aF0.011190004990403981
aF0.06613932195945363
aF1.3092305838772657e-09
aF1.0
aF0.09892152642326257
aF0.164734190323077
aF0.013308438520193932
aF0.03981407927242419
aF0.13890848610568313
atp520
a(g4
(g8
S'\x93\x04\xa9\x83\xfd/S@'
p521
tp522
Rp523
(lp524
F121.07256164900988
aF0.011189945513666838
aF0.06804701657270258
aF1.30922362509902e-09
aF0.9979429423314033
aF0.10010588863089279
aF0.17342615971570463
aF0.013649497100386253
aF0.041010297624700466
aF0.14291052461341117
atp525
a(g4
(g8
S"\x1dc'\t\x060S@"
p526
tp527
Rp528
(lp529
F122.59025569215953
aF0.011034051168729872
aF0.0677975909197805
aF1.290983986741395e-09
aF1.0
aF0.10161373408521143
aF0.1698282242014027
aF0.013642092821620433
aF0.0407420873992115
aF0.14290621096789077
atp530
a(g4
(g8
S'\x9606\x97#0S@'
p531
tp532
Rp533
(lp534
F120.03709937342367
aF0.011419502981439393
aF0.06911943113843295
aF1.336081848828409e-09
aF0.9950268625745342
aF0.10235250790093034
aF0.17167728871443436
aF0.013875963275403545
aF0.041514088437626724
aF0.14496941417752465
atp535
a(g4
(g8
S'\x8d\xa6\xa9n\x990S@'
p536
tp537
Rp538
(lp539
F116.28365209267909
aF0.010853675974652735
aF0.07210767683646147
aF1.26988008903437e-09
aF0.9938803173409129
aF0.10480379224080372
aF0.17891977153636446
aF0.014467049302953828
aF0.04334970158023461
aF0.15302591940500573
atp540
a(g4
(g8
S'I\x8bA\xbc\xa40S@'
p541
tp542
Rp543
(lp544
F115.18239655838622
aF0.01109023388638098
aF0.07265045361770761
aF1.2975573647065748e-09
aF1.0
aF0.10537692437692431
aF0.17849874326636658
aF0.014553321163061584
aF0.043672770112087624
aF0.14986573115216076
atp545
a(g4
(g8
S'\x01i%\xe1\xd60S@'
p546
tp547
Rp548
(lp549
F118.4535965324887
aF0.010934391620522227
aF0.07119226733884156
aF1.2793238196011006e-09
aF0.9966361070688503
aF0.10342063721303257
aF0.17381804783544316
aF0.014257148398626782
aF0.042761223397532626
aF0.14925582514876656
atp550
a(g4
(g8
S'\x14\xb4\x83X\xfb0S@'
p551
tp552
Rp553
(lp554
F116.08547212660518
aF0.011147879782187151
aF0.07145302529726236
aF1.3043019345158967e-09
aF0.9983850288724517
aF0.10320798416795718
aF0.18221075533553727
aF0.01433273419765633
aF0.04292904243706498
aF0.15154179335618584
atp555
a(g4
(g8
S'e\xf9H.\x1a1S@'
p556
tp557
Rp558
(lp559
F111.76448454019679
aF0.011615251017906636
aF0.07395235187461596
aF1.3589843690950764e-09
aF0.9999446091475201
aF0.10784761383677902
aF0.18382679865020501
aF0.014817063283158726
aF0.04443852456514484
aF0.15405076949734625
atp560
a(g4
(g8
S'\xe9h\xdb\x8e\x1a1S@'
p561
tp562
Rp563
(lp564
F114.47888461467687
aF0.01120122797759029
aF0.07244271406465191
aF1.3105436733780639e-09
aF1.0
aF0.10594904131893286
aF0.18056804825796796
aF0.01458918404074669
aF0.04364073953530781
aF0.15338557964053176
atp565
a(g4
(g8
S'\x11\xa6di$1S@'
p566
tp567
Rp568
(lp569
F116.99805872631457
aF0.011570948149323421
aF0.07047340086216973
aF1.3538009334708404e-09
aF0.997933053529625
aF0.10300370872961662
aF0.17442530527607025
aF0.014233729220011752
aF0.04234182707711161
aF0.14781194435753034
atp570
a(g4
(g8
S'\x1aT\xfb\xd9t1S@'
p571
tp572
Rp573
(lp574
F114.13380414385894
aF0.01112199141113814
aF0.07293264133240313
aF1.3012729951031624e-09
aF0.9922267601646129
aF0.10714811756428362
aF0.1796573132781669
aF0.014645983648114091
aF0.04380890982196896
aF0.15397383079364896
atp575
a(g4
(g8
S'P3\xc3\r\x172S@'
p576
tp577
Rp578
(lp579
F115.10355920160775
aF0.011287989705555177
aF0.07136130662410521
aF1.3206947955499557e-09
aF0.997933053529625
aF0.10651245219665122
aF0.18113947127614555
aF0.01434058187912968
aF0.04287960586526246
aF0.14869275578329386
atp580
a(g4
(g8
S'.w_\xa1w2S@'
p581
tp582
Rp583
(lp584
F113.90413610987915
aF0.011161871508884097
aF0.07321082666803118
aF1.3059389665394393e-09
aF0.9902352176448265
aF0.10840210676813512
aF0.18146189135823423
aF0.014750132021725443
aF0.04397944009639243
aF0.15173280258012276
atp585
a(g4
(g8
S'S9\xccR\xd32S@'
p586
tp587
Rp588
(lp589
F107.67027420687327
aF0.011109289344534489
aF0.0774683375737309
aF1.2997868533105352e-09
aF1.0
aF0.11227972618946562
aF0.19244263588302501
aF0.015516414198330478
aF0.046627738018983456
aF0.15979882874838838
atp590
a(g4
(g8
S'\xc5U\x8b\xd8\x163S@'
p591
tp592
Rp593
(lp594
F111.48496207332215
aF0.01147514109453861
aF0.07398400825737077
aF1.3425915080610174e-09
aF0.9978638149640252
aF0.10543810767757138
aF0.1888939199537615
aF0.014809215601685376
aF0.04441651781622637
aF0.15724543048688422
atp595
a(g4
(g8
S'/w\xe8\x0cM3S@'
p596
tp597
Rp598
(lp599
F105.70494030543344
aF0.0114321967420947
aF0.07852225161642694
aF1.33756701882508e-09
aF1.0
aF0.11296323793948522
aF0.1945217434541038
aF0.01572710557503705
aF0.047300908743135965
aF0.16402629683903316
atp600
a(g4
(g8
S'\nk\xb3m\x1f4S@'
p601
tp602
Rp603
(lp604
F103.44363251873204
aF0.011065430555144426
aF0.07992298053178486
aF1.294655374951898e-09
aF1.0
aF0.11628791426327319
aF0.20117810232732583
aF0.015985282616261143
aF0.04802935849461693
aF0.16936414610923958
atp605
a(g4
(g8
S'\xfc\x82?\x86n4S@'
p606
tp607
Rp608
(lp609
F103.0484811005432
aF0.011590423354731526
aF0.08059508781683554
aF1.3560795325035886e-09
aF1.0
aF0.1163284975169213
aF0.2027166052144305
aF0.016144173451820176
aF0.048460918901620104
aF0.16902345291679272
atp610
a(g4
(g8
S'\x1c\x1e\x84\x18\xbb4S@'
p611
tp612
Rp613
(lp614
F104.42563468199549
aF0.011077906107877816
aF0.08036656959792975
aF1.2961150146217045e-09
aF1.0
aF0.11646869785855768
aF0.20298150695894712
aF0.016125274798035737
aF0.048230096689925187
aF0.16883554013443586
atp615
aa(lp616
(g4
(g8
S'\x1f4\\I\x9f(S@'
p617
tp618
Rp619
(lp620
F237.0275761583207
aF0.010612355624653902
aF0.034923335751543286
aF1.2416456080845066e-09
aF1.0
aF0.05053303161992081
aF0.08662668678728076
aF0.00724631038993456
aF0.021119407830492425
aF0.07235539704756493
atp621
a(g4
(g8
S'\xef$@\xa7^+S@'
p622
tp623
Rp624
(lp625
F388.5471963155005
aF0.010144251240682328
aF0.021519787926165403
aF1.1868773951598324e-09
aF0.8861023308841501
aF0.03132699475105162
aF0.05066339077042291
aF0.004352124381754632
aF0.012926300871195479
aF0.04532194081431833
atp626
a(g4
(g8
S'\xa2\xa7\x96a\xfc0S@'
p627
tp628
Rp629
(lp630
F712.8972477164372
aF0.010574838719377047
aF0.011333758513353854
aF1.2372561301671145e-09
aF0.698974119111294
aF0.016763144498690884
aF0.028972605392916375
aF0.002352782713879986
aF0.0070916933584506256
aF0.02451346484895595
atp631
a(g4
(g8
S'0\xc6\x90 \x132S@'
p632
tp633
Rp634
(lp635
F756.1351337418433
aF0.011306944702426071
aF0.010887453511550581
aF1.3229125301838504e-09
aF0.9968671577681228
aF0.01617224099461008
aF0.026696816870325678
aF0.0022734088713978317
aF0.006725605555484099
aF0.02282790913890363
atp636
a(g4
(g8
S'u\x8c\x92\x01\xf64S@'
p637
tp638
Rp639
(lp640
F850.2511804496826
aF0.010831204201660465
aF0.009687296974570995
aF1.2672508915942744e-09
aF0.8865890434188051
aF0.014324017561052648
aF0.023922072202093768
aF0.0020168481623182924
aF0.0061906965218004786
aF0.020378733977538376
atp641
a(g4
(g8
S'q>\x0cby8S@'
p642
tp643
Rp644
(lp645
F179.6579202869611
aF0.010469884761496587
aF0.04658615015799193
aF1.2249765170951008e-09
aF1.0
aF0.06298084257361365
aF0.11482545274453285
aF0.009470294543124525
aF0.028429013707640102
aF0.09448659364675795
atp646
a(g4
(g8
S'\xde\x90?\x99\xcd8S@'
p647
tp648
Rp649
(lp650
F167.75762487291607
aF0.011882289344048596
aF0.04792876507443632
aF1.3902278532536858e-09
aF1.0
aF0.06801808295836412
aF0.1184876966564808
aF0.009931589405131743
aF0.028832023576306806
aF0.09900860734165486
atp651
a(g4
(g8
S'1\xb9\xd1\xd7K;S@'
p652
tp653
Rp654
(lp655
F219.4672958525181
aF0.01021033029098872
aF0.037053386654683704
aF1.1946086440456802e-09
aF0.9186455591138833
aF0.054307059787411086
aF0.09248866492879558
aF0.007658831241490469
aF0.022337730542126295
aF0.08299834670568261
atp656
a(g4
(g8
S'\x84\xad\xfeT&@S@'
p657
tp658
Rp659
(lp660
F178.4708027477546
aF0.011876026407509753
aF0.04524740573863801
aF1.3894950896786412e-09
aF0.6237176488891176
aF0.06652883844368922
aF0.11350467266779594
aF0.009443614339365938
aF0.027354774901145476
aF0.09688490436697943
atp661
a(g4
(g8
S'\xc1\xf6\x8c\x16;AS@'
p662
tp663
Rp664
(lp665
F1583.5174792998864
aF0.010152079911355883
aF0.005290286501234687
aF1.1877933496286382e-09
aF1.0
aF0.007874289547472992
aF0.01319398295835665
aF0.0011197659629474301
aF0.003434273413834255
aF0.011410838485363945
atp666
a(g4
(g8
S'\xe9\xe9\x18\x8d\x03BS@'
p667
tp668
Rp669
(lp670
F175.48346641097154
aF0.012507492925974117
aF0.04531715546442605
aF1.4633766723389717e-09
aF0.6813761844522721
aF0.06625982068776441
aF0.11363714595631105
aF0.00943278182939453
aF0.02757649339114982
aF0.09786620341099209
atp671
a(g4
(g8
S'\x97\xdd2\x87}GS@'
p672
tp673
Rp674
(lp675
F1155.0362897297666
aF0.011075001584917464
aF0.00683838995236374
aF1.2957751854353433e-09
aF1.0
aF0.009995909200828804
aF0.017401081121007776
aF0.001514373993697799
aF0.004113180654796729
aF0.015505196623719505
atp676
a(g4
(g8
S'3]8\xd0\x9cGS@'
p677
tp678
Rp679
(lp680
F189.31522220953042
aF0.012388364534051476
aF0.04332163814547909
aF1.4494386504840228e-09
aF0.577590820438594
aF0.06078301473536402
aF0.10954372132039361
aF0.008846785073453009
aF0.026859600976193873
aF0.09305858873342948
atp681
a(g4
(g8
S'\xb4\xe7\xd2\xf6\x0eIS@'
p682
tp683
Rp684
(lp685
F171.76779780005933
aF0.01079522145236248
aF0.048688929566799426
aF1.2630409099264102e-09
aF0.9475515404989483
aF0.065146078641441
aF0.12239835823354822
aF0.010303135289019376
aF0.029654862960249176
aF0.10536813118477031
atp686
a(g4
(g8
S'\x19\xf9\x8fE\x16JS@'
p687
tp688
Rp689
(lp690
F237.0275761583207
aF0.008294942562589508
aF0.0383078306553161
aF9.705082798229724e-10
aF1.0
aF0.05375378468544771
aF0.09186621600373912
aF0.00784092415661543
aF0.023474740272310144
aF0.07836270948241794
atp691
a(g4
(g8
S'w[\x10\x16\x91LS@'
p692
tp693
Rp694
(lp695
F166.80793084155087
aF0.011397155507374456
aF0.0504044285852971
aF1.3334671943628114e-09
aF0.8826737320367375
aF0.06720656796489634
aF0.125799782975043
aF0.01050177284131176
aF0.030851690530290334
aF0.10727872898650724
atp696
a(g4
(g8
S'\x0e\xd3l$\x0bNS@'
p697
tp698
Rp699
(lp700
F182.0477893563875
aF0.01236558444521824
aF0.046229334885171655
aF1.446773380090534e-09
aF0.6813761844522721
aF0.06547398274536247
aF0.11236046804522153
aF0.00954940212665649
aF0.028251638915636625
aF0.09513442291297088
atp701
a(g4
(g8
S'\xa4\x93P.\xd0cS@'
p702
tp703
Rp704
(lp705
F1624.8852160835681
aF0.008814512668907981
aF0.005427878698854825
aF1.0312979822622338e-09
aF0.9349164472911067
aF0.006985130380088044
aF0.013365141256505241
aF0.0011097954722532025
aF0.0034121369555399814
aF0.012393481439724493
atp706
a(g4
(g8
S'\xc2\xd2\x17v\xcboS@'
p707
tp708
Rp709
(lp710
F1848.505351817134
aF0.01226779437590529
aF0.004187853788565253
aF1.435331941980919e-09
aF0.49039456898261
aF0.006223710295916224
aF0.010643566221807631
aF0.0008616801513149348
aF0.0027586287609231578
aF0.010193037768155083
atp711
a(g4
(g8
S'\xc6\x15\xc0[\x86\xbdS@'
p712
tp713
Rp714
(lp715
F6090.214964686062
aF0.01643899757091684
aF0.0011780272664119195
aF1.9233627157972702e-09
aF0.3651022678994381
aF0.0017234116913424397
aF0.003068964544012302
aF0.00024795222639403006
aF0.0008077233585505235
aF0.0026615219492744824
atp716
aa(lp717
(g4
(g8
S';\xcf\xa4\xef4\x15S@'
p718
tp719
Rp720
(lp721
F1092.1229867788365
aF0.009756827992988059
aF0.007769704524312423
aF1.141548875179603e-09
aF1.0
aF0.011221963727327942
aF0.01917707286940891
aF0.0015557045525877936
aF0.004665073826476401
aF0.01616920196610702
atp722
a(g4
(g8
S'\x06\x9dM\x81K\x15S@'
p723
tp724
Rp725
(lp726
F1080.343003223937
aF0.009648858776296456
aF0.007868005598103543
aF1.1289164768266853e-09
aF1.0
aF0.011420785175695048
aF0.019436247834720213
aF0.001576552639453572
aF0.0047217035378598355
aF0.0164065243830182
atp727
a(g4
(g8
S'7\xdf\xafJ\xbf\x15S@'
p728
tp729
Rp730
(lp731
F1071.3155213769705
aF0.009685419825514721
aF0.007923411107122955
aF1.1331941195852225e-09
aF0.9990158341985151
aF0.011434920570868685
aF0.019490155012901373
aF0.001590090993105356
aF0.004762681265436026
aF0.016381210382883555
atp732
a(g4
(g8
S'\xf4\xc9\x94y\xc6\x15S@'
p733
tp734
Rp735
(lp736
F1051.1560430129355
aF0.009542302366391631
aF0.00811532216958819
aF1.116449376867821e-09
aF0.9969687693314265
aF0.01176438490111991
aF0.0200731213833001
aF0.0016244144727820054
aF0.0048757653015295745
aF0.01693227839189651
atp737
a(g4
(g8
S'\x11\xff\x15\xa3\xd8\x15S@'
p738
tp739
Rp740
(lp741
F1057.8274377800342
aF0.00994264810938803
aF0.008007993549065904
aF1.1632898287983995e-09
aF1.0
aF0.011471796656239416
aF0.019743291568353964
aF0.0016018061840115275
aF0.004812798944391089
aF0.016665903293754985
atp742
a(g4
(g8
S'\x93\x83\xec\x03\x02\x16S@'
p743
tp744
Rp745
(lp746
F1021.0795197515622
aF0.009909736692505252
aF0.008260559991071698
aF1.1594391930231146e-09
aF1.0
aF0.011965797097010466
aF0.020352466963949628
aF0.0016527039726889961
aF0.0049710783914710096
aF0.01702970682645849
atp747
a(g4
(g8
S"\xd8'G\xd7\x06\x16S@"
p748
tp749
Rp750
(lp751
F1116.190317501292
aF0.009854014903602102
aF0.007627965538896315
aF1.152919743721446e-09
aF1.0
aF0.01094079254556728
aF0.018623159882799972
aF0.001527205256959275
aF0.0045884232416625245
aF0.01590244303054195
atp752
a(g4
(g8
S'\xab}\xd4\x83\x0c\x16S@'
p753
tp754
Rp755
(lp756
F1095.9614054502408
aF0.0098147949610053
aF0.007753879564585407
aF1.1483310104376202e-09
aF1.0
aF0.011146528476508414
aF0.019009855434685797
aF0.0015527428399938587
aF0.004665472433354317
aF0.016249472721026795
atp757
a(g4
(g8
S'xf?\x05\x14\x16S@'
p758
tp759
Rp760
(lp761
F1139.7894539163676
aF0.009515044267232715
aF0.007546788098544327
aF1.1132601792662276e-09
aF0.9990158341985151
aF0.010840242593156718
aF0.018489592341456532
aF0.0015095268636564404
aF0.00453131135938897
aF0.015757090453272404
atp762
a(g4
(g8
S'\'\x17\xfa\xf0"\x16S@'
p763
tp764
Rp765
(lp766
F1131.1242233062303
aF0.00970283344540726
aF0.007518542248172888
aF1.1352315131126495e-09
aF1.0
aF0.010865487152743688
aF0.018475902368186903
aF0.001512990915220968
aF0.00451785714801567
aF0.015357216290293655
atp767
a(g4
(g8
S'\xd6\x10H$S\x16S@'
p768
tp769
Rp770
(lp771
F1076.1135447162258
aF0.009757878535536273
aF0.007903629907464184
aF1.141671788657744e-09
aF1.0
aF0.011340626507344274
aF0.01928113321949748
aF0.0015863888523629372
aF0.004757815122295039
aF0.016481548826533274
atp772
a(g4
(g8
S'\xde\x06\xa0\xb7l\x16S@'
p773
tp774
Rp775
(lp776
F1132.9483183380453
aF0.009666972789335176
aF0.007510945534056765
aF1.1310358163522156e-09
aF1.0
aF0.010745559811598256
aF0.018340817943864905
aF0.0015087893162819752
aF0.004513011470299352
aF0.015793144938252096
atp777
a(g4
(g8
S'N=$\x01q\x16S@'
p778
tp779
Rp780
(lp781
F1153.7456856162148
aF0.010163412884031683
aF0.00728082497682774
aF1.189119307431707e-09
aF1.0
aF0.010433974488698039
aF0.017818742783811528
aF0.0014565458745926828
aF0.004379117680360984
aF0.015108176547747472
atp782
a(g4
(g8
S'\x05\xc7K\x81q\x16S@'
p783
tp784
Rp785
(lp786
F1107.7007879918258
aF0.009358583784115292
aF0.007781612847394099
aF1.094954302741489e-09
aF1.0
aF0.01122475082239959
aF0.01900996665493314
aF0.0015610858965748214
aF0.004675907392298382
aF0.01604793421647822
atp787
a(g4
(g8
S'\x8f\xfe\x1e\x8e\x87\x16S@'
p788
tp789
Rp790
(lp791
F1322.6128441322007
aF0.009941443945368712
aF0.006422848190550627
aF1.1631489416081393e-09
aF1.0
aF0.009234501668800162
aF0.015822964388005824
aF0.0012952185011811707
aF0.003858135122645551
aF0.013229031609395736
atp792
a(g4
(g8
S'\x19\xd5\xea\xb8\xa5\x16S@'
p793
tp794
Rp795
(lp796
F1130.9152969449162
aF0.009988976424466606
aF0.0075050891966574156
aF1.168710241662593e-09
aF1.0
aF0.010692265735108397
aF0.018187087664655637
aF0.0015011451483770521
aF0.004517636102433231
aF0.015605790009402975
atp797
a(g4
(g8
S'\xbbv\xdf\xdf\xab\x16S@'
p798
tp799
Rp800
(lp801
F1113.780122164035
aF0.009459658739268637
aF0.007738921327057491
aF1.1067800724944306e-09
aF1.0
aF0.011106438647582647
aF0.01888094502082211
aF0.0015525099143033933
aF0.004653320658088501
aF0.016022100974243073
atp802
a(g4
(g8
S'\xd7,\x9f\xc6\xcb\x16S@'
p803
tp804
Rp805
(lp806
F1112.4393437076649
aF0.009967647086353473
aF0.007631929550561087
aF1.1662147091033562e-09
aF1.0
aF0.010991383445596692
aF0.01872231987966227
aF0.001526877678145902
aF0.004602124839023688
aF0.015928868567689217
atp807
a(g4
(g8
S'\xe9\r\x0e\xa2\x0c\x17S@'
p808
tp809
Rp810
(lp811
F1170.0388849675194
aF0.010057429454409773
aF0.00718307492406226
aF1.1767192461659434e-09
aF0.9803166839702999
aF0.010375827450188242
aF0.01766918017882716
aF0.0014443151315636977
aF0.004327552700734523
aF0.015063330623743817
atp812
a(g4
(g8
S'\xaf\x97\x10\x84\xb7\x17S@'
p813
tp814
Rp815
(lp816
F1012.3061415706411
aF0.01010782534076327
aF0.008375687031564286
aF1.1826155648693026e-09
aF0.9974411689161392
aF0.012037730759975355
aF0.02054332719679854
aF0.0016850043118868997
aF0.005029822335008787
aF0.017490995059224905
atp817
aasS'parameter_map'
p818
(dp819
S'Sample3.kt'
p820
I4
sS'Sample3.kr'
p821
I3
sS'Sample8.kf'
p822
I1
sS'Sample4.ci'
p823
I0
sS'Sample3.kf'
p824
I1
sS'Sample8.kr'
p825
I3
sS'Sample6.ci'
p826
I0
sS'Sample8.kt'
p827
I4
sS'Sample7.kf'
p828
I1
sS'Sample1.kf'
p829
I1
sS'Sample5.syn'
p830
I2
sS'Sample9.syn'
p831
I2
sS'Sample8.ci'
p832
I0
sS'Sample7.kr'
p833
I3
sS'Sample1.kr'
p834
I3
sS'Sample1.kt'
p835
I4
sS'Sample7.kt'
p836
I4
sS'Sample3.ci'
p837
I0
sS'Sample5.kt'
p838
I4
sS'Sample5.ci'
p839
I0
sS'Sample5.kr'
p840
I3
sS'Sample6.syn'
p841
I7
sS'Sample2.ci'
p842
I0
sS'Sample7.syn'
p843
I6
sS'Sample1.ci'
p844
I0
sS'Sample5.kf'
p845
I1
sS'Sample7.ci'
p846
I0
sS'Sample3.syn'
p847
I8
sS'Sample4.kf'
p848
I1
sS'Sample2.syn'
p849
I9
sS'Sample8.syn'
p850
I2
sS'Sample6.kt'
p851
I4
sS'Sample2.kr'
p852
I3
sS'Sample2.kt'
p853
I4
sS'Sample9.kf'
p854
I1
sS'Sample6.kr'
p855
I3
sS'Sample4.syn'
p856
I5
sS'Sample4.kt'
p857
I4
sS'Sample1.syn'
p858
I6
sS'Sample4.kr'
p859
I3
sS'Sample9.ci'
p860
I0
sS'Sample9.kr'
p861
I3
sS'Sample6.kf'
p862
I1
sS'Sample9.kt'
p863
I4
sS'Sample2.kf'
p864
I1
ss.