(dp0
S'islands'
p1
(lp2
(lp3
(cnumpy.core.multiarray
scalar
p4
(cnumpy
dtype
p5
(S'f8'
p6
I0
I1
tp7
Rp8
(I3
S'<'
p9
NNNI-1
I-1
I0
tp10
bS'\x87}p\x9a\x86\xcdW@'
p11
tp12
Rp13
(lp14
F648.8982777
aF0.0148432
aF0.0027306
aF1.7366544000000002e-09
aF1.0
aF0.0114287
aF0.02836594725576247
aF0.0234224
aF0.01654034093839072
aF0.007096
atp15
a(g4
(g8
S'\xb46_\xba.\x02W@'
p16
tp17
Rp18
(lp19
F989.6588556
aF0.0091555
aF0.0017016
aF1.0711935e-09
aF0.7082474
aF0.0084566
aF0.020628892928657206
aF0.01800063113260842
aF0.010945803613415817
aF0.0051848593256617545
atp20
a(g4
(g8
S'\xb3\x8d\xa1\x9d~\x17W@'
p21
tp22
Rp23
(lp24
F590.3182446
aF0.0082041
aF0.0031536
aF9.598797000000001e-10
aF1.0
aF0.0147436
aF0.0351621
aF0.031400992541273695
aF0.019990535182825547
aF0.0090476
atp25
a(g4
(g8
S'\xc7\xe5\xa6\xf3vnW@'
p26
tp27
Rp28
(lp29
F605.7138034
aF0.0076251
aF0.0030447
aF8.921367000000001e-10
aF0.6238557
aF0.0143812
aF0.03641386491056904
aF0.03083101344418947
aF0.020180603216804566
aF0.00972172392229416
atp30
a(g4
(g8
S'\x9aV\xf5h\x91\x15W@'
p31
tp32
Rp33
(lp34
F603.1975153
aF0.0095208
aF0.003118
aF1.1139336e-09
aF0.8945104
aF0.0139778
aF0.0352009
aF0.0290808
aF0.020254570243662715
aF0.008706855631365099
atp35
a(g4
(g8
S'\xd9u\xd6\xa5\x8dUW@'
p36
tp37
Rp38
(lp39
F548.1667646
aF0.0131125
aF0.0030279
aF1.5341625e-09
aF0.8945104
aF0.0146621
aF0.03914831049166396
aF0.029347098200782278
aF0.02028174363790088
aF0.009583090183262356
atp40
a(g4
(g8
S'N\xc2+\x94]5W@'
p41
tp42
Rp43
(lp44
F550.5081653
aF0.0138189
aF0.0032406
aF1.6168113000000001e-09
aF0.25655615
aF0.0149545
aF0.03463835275830119
aF0.0304808
aF0.0216699
aF0.009376187524628543
atp45
a(g4
(g8
S'U\x1fALq0W@'
p46
tp47
Rp48
(lp49
F433.2887074
aF0.0082297
aF0.004109316253090568
aF9.628749e-10
aF1.0
aF0.0196415
aF0.04683135274406941
aF0.0413934
aF0.0258479
aF0.0124858
atp50
a(g4
(g8
S'\x8f\x88]k\xf9\x13W@'
p51
tp52
Rp53
(lp54
F644.6640018
aF0.008223
aF0.0027322
aF9.62091e-10
aF1.0
aF0.0130313
aF0.0341151
aF0.0274507
aF0.0181248
aF0.0078686
atp55
a(g4
(g8
S'\xaa\x1a\x05<\xa2\xafW@'
p56
tp57
Rp58
(lp59
F647.0251571
aF0.0142781
aF0.0025604
aF1.6705377e-09
aF0.5298196
aF0.0111948
aF0.029475615008160892
aF0.02251544662281855
aF0.015948092005528568
aF0.0072615
atp60
a(g4
(g8
S'\xd7\xf1\xd8e\x86$W@'
p61
tp62
Rp63
(lp64
F480.2345681
aF0.0130889
aF0.0035546
aF1.5314013000000001e-09
aF0.6238557
aF0.0168025
aF0.0404571
aF0.034285
aF0.0226139
aF0.0110569
atp65
a(g4
(g8
S't\xb6\xbb\x1fF\x99W@'
p66
tp67
Rp68
(lp69
F505.3444669
aF0.0219496
aF0.0029648
aF2.5681032e-09
aF0.28409775
aF0.0146725
aF0.03699531482496268
aF0.029877955755632155
aF0.0208568
aF0.0098717
atp70
aa(lp71
(g4
(g8
S'#\xbeb\xa4\xe4oY@'
p72
tp73
Rp74
(lp75
F15601.544213
aF0.6425765
aF9.21066353386173e-05
aF7.51814505e-08
aF0.148585
aF0.0004561
aF0.001106525482540666
aF0.0009436848574443464
aF0.0006231604859424022
aF0.0002837266609460381
atp76
a(g4
(g8
S'6\xea0|\xfb6Z@'
p77
tp78
Rp79
(lp80
F2882.1755459
aF0.5
aF0.0004796
aF5.85e-08
aF0.24885615
aF0.002203
aF0.0053958
aF0.0045106
aF0.0030981433446216127
aF0.0014128
atp81
a(g4
(g8
S'\xc6Zi\x92\xab\xdaY@'
p82
tp83
Rp84
(lp85
F852.37507345
aF0.7795392
aF0.0017227
aF9.12060864e-08
aF0.09614605
aF0.0078714
aF0.0191403
aF0.0165509
aF0.0106832
aF0.0054723
atp86
a(g4
(g8
S'X\x0b\r\x01\x91\x18Y@'
p87
tp88
Rp89
(lp90
F21015.9173601
aF0.05595235
aF7.27675092392786e-05
aF6.54642495e-09
aF0.016659025
aF0.00033405
aF0.0008881482312593753
aF0.0007254867624846452
aF0.00046360573278363647
aF0.000260596968354642
atp91
a(g4
(g8
S'\xae\x93]\xc8a\xa7X@'
p92
tp93
Rp94
(lp95
F2681.3206761
aF0.084135275
aF0.0006475912774631097
aF9.843827175e-09
aF0.0299496
aF0.0025633
aF0.006432333192290866
aF0.005162194443145327
aF0.0036235009402241134
aF0.0016372594654974777
atp96
a(g4
(g8
S'\x93yI1\x84CX@'
p97
tp98
Rp99
(lp100
F1057.4802981
aF0.0224751
aF0.0016239786724920216
aF2.6295867e-09
aF0.23399755
aF0.007098
aF0.0174279
aF0.0147944
aF0.0096915
aF0.0048849
atp101
a(g4
(g8
S'D\x95\x7f\xf8\xd7\x9aY@'
p102
tp103
Rp104
(lp105
F2751.304362
aF0.0457261
aF0.00047260223418323354
aF5.3499537e-09
aF0.1762462
aF0.0023588
aF0.006079094614017807
aF0.004891780571245232
aF0.0034537039707914653
aF0.0016219388839101082
atp106
a(g4
(g8
S'N\xda\xf0\xf8\xb4TY@'
p107
tp108
Rp109
(lp110
F785.704972225
aF0.3590672
aF0.0019791
aF4.20108624e-08
aF0.024002
aF0.008811
aF0.0229707628278181
aF0.0177887
aF0.0122625
aF0.0056304
atp111
a(g4
(g8
S'(3\x12\xf5\x1e\xc6Y@'
p112
tp113
Rp114
(lp115
F4215.3546362
aF0.8145253
aF0.00034551556234028004
aF9.529946010000001e-08
aF0.3373709
aF0.001571275
aF0.003993750490369593
aF0.0031691937897999024
aF0.0020206516557971367
aF0.0009780582122463943
atp116
a(g4
(g8
S'\x88b8Y\xb7\xacY@'
p117
tp118
Rp119
(lp120
F8290.7820407
aF0.3606976
aF0.00018980887528947344
aF4.22016192e-08
aF0.3616113
aF0.0008525
aF0.0020594861972077663
aF0.0017394110292290705
aF0.0012599152078191433
aF0.0005129940265942959
atp121
a(g4
(g8
S'K{\xe4zq\x83Y@'
p122
tp123
Rp124
(lp125
F971.2021082
aF0.1778365
aF0.0015845
aF2.0806870500000002e-08
aF0.1344069
aF0.007139
aF0.0177051
aF0.0144495
aF0.010008819325227064
aF0.0044047
atp126
a(g4
(g8
S'\x01\xb5o\xa4\x99@Y@'
p127
tp128
Rp129
(lp130
F1137.8773613
aF0.144171575
aF0.001458
aF1.6868074275e-08
aF0.0317105
aF0.0061757
aF0.01656966820632842
aF0.012552833820844824
aF0.007509260742771327
aF0.004397270613746977
atp131
aasS'parameter_map'
p132
(dp133
S'Sample4.ci'
p134
I0
sS'Sample12.ci'
p135
I0
sS'Sample14.ci'
p136
I0
sS'Sample12.syn'
p137
I6
sS'Sample3.kr'
p138
I3
sS'Sample8.kf'
p139
I1
sS'Sample2.kt'
p140
I4
sS'Sample10.syn'
p141
I5
sS'Sample10.ci'
p142
I0
sS'Sample3.kf'
p143
I1
sS'Sample8.kr'
p144
I3
sS'Sample6.ci'
p145
I0
sS'Sample8.kt'
p146
I4
sS'Sample3.ci'
p147
I0
sS'Sample10.kt'
p148
I4
sS'Sample7.kf'
p149
I1
sS'Sample10.kr'
p150
I3
sS'Sample1.kf'
p151
I1
sS'Sample5.syn'
p152
I7
sS'Sample14.kr'
p153
I3
sS'Sample8.ci'
p154
I0
sS'Sample12.kr'
p155
I3
sS'Sample12.kt'
p156
I4
sS'Sample14.kt'
p157
I4
sS'Sample7.kr'
p158
I3
sS'Sample10.kf'
p159
I1
sS'Sample1.kr'
p160
I3
sS'Sample1.kt'
p161
I4
sS'Sample7.kt'
p162
I4
sS'Sample2.syn'
p163
I2
sS'Sample11.syn'
p164
I2
sS'Sample14.kf'
p165
I1
sS'Sample12.kf'
p166
I1
sS'Sample5.kt'
p167
I4
sS'Sample5.ci'
p168
I0
sS'Sample5.kr'
p169
I3
sS'Sample11.ci'
p170
I0
sS'Sample13.kr'
p171
I3
sS'Sample6.syn'
p172
I6
sS'Sample13.kt'
p173
I4
sS'Sample2.kf'
p174
I1
sS'Sample1.ci'
p175
I0
sS'Sample5.kf'
p176
I1
sS'Sample7.ci'
p177
I0
sS'Sample3.kt'
p178
I4
sS'Sample7.syn'
p179
I7
sS'Sample3.syn'
p180
I6
sS'Sample13.kf'
p181
I1
sS'Sample14.syn'
p182
I5
sS'Sample11.kr'
p183
I3
sS'Sample13.ci'
p184
I0
sS'Sample11.kt'
p185
I4
sS'Sample8.syn'
p186
I9
sS'Sample9.syn'
p187
I8
sS'Sample6.kt'
p188
I4
sS'Sample2.kr'
p189
I3
sS'Sample2.ci'
p190
I0
sS'Sample13.syn'
p191
I5
sS'Sample9.kf'
p192
I1
sS'Sample6.kr'
p193
I3
sS'Sample4.syn'
p194
I5
sS'Sample4.kt'
p195
I4
sS'Sample1.syn'
p196
I5
sS'Sample4.kr'
p197
I3
sS'Sample11.kf'
p198
I1
sS'Sample9.ci'
p199
I0
sS'Sample9.kr'
p200
I3
sS'Sample6.kf'
p201
I1
sS'Sample9.kt'
p202
I4
sS'Sample4.kf'
p203
I1
ss.